; Function Attrs: mustprogress uwtable
define ptr @udatpg_getDateTimeFormatForStyle_77(ptr noundef %0, i32 noundef %1, ptr noundef writeonly %2, ptr noundef %3) local_unnamed_addr #0 {
  %5 = load i32, ptr %3, align 4, !tbaa !6
  %6 = icmp slt i32 %5, 1
  br i1 %6, label %9, label %7

7:                                                ; preds = %4
  %.not13 = icmp eq ptr %2, null
  br i1 %.not13, label %_ZNK6icu_7713UnicodeString9getBufferEv.exit, label %8

8:                                                ; preds = %7
  store i32 0, ptr %2, align 4, !tbaa !18
  br label %_ZNK6icu_7713UnicodeString9getBufferEv.exit

9:                                                ; preds = %4
  %10 = tail call noundef nonnull align 8 dereferenceable(64) ptr @_ZNK6icu_7724DateTimePatternGenerator17getDateTimeFormatE16UDateFormatStyleR10UErrorCode(ptr noundef nonnull align 8 dereferenceable(4796) %0, i32 noundef %1, ptr noundef nonnull align 4 dereferenceable(4) %3)
  %.not12 = icmp eq ptr %2, null
  br i1 %.not12, label %20, label %11

11:                                               ; preds = %9
  %12 = getelementptr inbounds nuw i8, ptr %10, i64 8
  %13 = load i16, ptr %12, align 8, !tbaa !17
  %14 = icmp slt i16 %13, 0
  %15 = ashr i16 %13, 5
  %16 = sext i16 %15 to i32
  %17 = getelementptr inbounds nuw i8, ptr %10, i64 12
  %18 = load i32, ptr %17, align 4
  %19 = select i1 %14, i32 %18, i32 %16
  store i32 %19, ptr %2, align 4, !tbaa !18
  br label %20

20:                                               ; preds = %11, %9
  %21 = getelementptr inbounds nuw i8, ptr %10, i64 8
  %22 = load i16, ptr %21, align 8, !tbaa !17
  %23 = and i16 %22, 17
  %.not.i = icmp eq i16 %23, 0
  br i1 %.not.i, label %24, label %_ZNK6icu_7713UnicodeString9getBufferEv.exit

24:                                               ; preds = %20
  %25 = and i16 %22, 2
  %.not2.i = icmp eq i16 %25, 0
  br i1 %.not2.i, label %28, label %26

26:                                               ; preds = %24
  %27 = getelementptr inbounds nuw i8, ptr %10, i64 10
  br label %_ZNK6icu_7713UnicodeString9getBufferEv.exit

28:                                               ; preds = %24
  %29 = getelementptr inbounds nuw i8, ptr %10, i64 24
  %30 = load ptr, ptr %29, align 8, !tbaa !17
  br label %_ZNK6icu_7713UnicodeString9getBufferEv.exit

_ZNK6icu_7713UnicodeString9getBufferEv.exit:      ; preds = %28, %26, %20, %7, %8
  %.0 = phi ptr [ @_ZZ35udatpg_getDateTimeFormatForStyle_77E11emptyString, %8 ], [ @_ZZ35udatpg_getDateTimeFormatForStyle_77E11emptyString, %7 ], [ %27, %26 ], [ %30, %28 ], [ null, %20 ]
  ret ptr %.0
}